(dp1
I1
F0.49291167477584785
sI5
F0.52750477930325246
sI10
F0.51309409577371956
sI14
F0.64744950715176874
sI25
F0.56463730028052117
sI26
F0.51102221830619632
sI28
F0.58730808463117345
sI30
F0.66946353994432861
sI32
F0.50137969478343336
sI33
F0.61714352373983239
sI37
F0.50837383379106771
sI39
F0.53303137063607753
sI40
F0.47312350822604948
sI44
F0.95284882753668165
sI51
F0.4613273219916551
sI52
F0.6318802520215161
sI56
F0.66910509845500421
sI57
F0.58911981070758912
sI59
F0.61461222402245064
sI60
F0.58380657257831603
sS'Average'
p2
F0.57124721392595013
sI62
F0.51130709374851069
sI65
F0.48687695123068231
sI66
F0.58741402592322001
sI71
F0.60428251002261291
sI72
F0.57048656241273943
sI74
F0.49404447643484467
sI75
F0.52011991757156306
sS'Date'
p3
cdatetime
date
p4
(S'\x07\xe0\x07\r'
tRp5
s.